; Function Attrs: nounwind uwtable
define dso_local range(i32 2, 4) i32 @ExecUpdateLockMode(ptr noundef %0, ptr noundef %1) local_unnamed_addr #0 {
  %3 = tail call ptr @ExecGetAllUpdatedCols(ptr noundef %1, ptr noundef %0) #9
  %4 = getelementptr inbounds nuw i8, ptr %1, i64 8
  %5 = load ptr, ptr %4, align 8
  %6 = tail call ptr @RelationGetIndexAttrBitmap(ptr noundef %5, i32 noundef 0) #9
  %7 = tail call zeroext i1 @bms_overlap(ptr noundef %6, ptr noundef %3) #9
  %. = select i1 %7, i32 3, i32 2
  ret i32 %.
}